target datalayout = "e-m:e-p270:32:32-p271:32:32-p272:64:64-i64:64-i128:128-f80:128-n8:16:32:64-S128"
target triple = "x86_64-pc-linux-gnu"

%struct.ImVec2 = type { float, float }
%struct.ImGuiSizeCallbackData = type { ptr, %struct.ImVec2, %struct.ImVec2, %struct.ImVec2 }

; Function Attrs: mustprogress nounwind uwtable
define internal void @_ZZL31ShowExampleAppConstrainedResizePbEN17CustomConstraints11AspectRatioEP21ImGuiSizeCallbackData(ptr noundef %0) #4 align 2 {
  %2 = alloca ptr, align 8
  %3 = alloca float, align 4
  store ptr %0, ptr %2, align 8, !tbaa !629
  call void @llvm.lifetime.start.p0(i64 4, ptr %3) #7
  %4 = load ptr, ptr %2, align 8, !tbaa !629
  %5 = getelementptr inbounds nuw %struct.ImGuiSizeCallbackData, ptr %4, i32 0, i32 0
  %6 = load ptr, ptr %5, align 8, !tbaa !631
  %7 = load float, ptr %6, align 4, !tbaa !80
  store float %7, ptr %3, align 4, !tbaa !80
  %8 = load ptr, ptr %2, align 8, !tbaa !629
  %9 = getelementptr inbounds nuw %struct.ImGuiSizeCallbackData, ptr %8, i32 0, i32 3
  %10 = getelementptr inbounds nuw %struct.ImVec2, ptr %9, i32 0, i32 0
  %11 = load float, ptr %10, align 8, !tbaa !633
  %12 = load float, ptr %3, align 4, !tbaa !80
  %13 = fdiv float %11, %12
  %14 = fptosi float %13 to i32
  %15 = sitofp i32 %14 to float
  %16 = load ptr, ptr %2, align 8, !tbaa !629
  %17 = getelementptr inbounds nuw %struct.ImGuiSizeCallbackData, ptr %16, i32 0, i32 3
  %18 = getelementptr inbounds nuw %struct.ImVec2, ptr %17, i32 0, i32 1
  store float %15, ptr %18, align 4, !tbaa !634
  call void @llvm.lifetime.end.p0(i64 4, ptr %3) #7
  ret void
}